target datalayout = "e-m:e-p270:32:32-p271:32:32-p272:64:64-i64:64-i128:128-f80:128-n8:16:32:64-S128"
target triple = "x86_64-pc-linux-gnu"

%struct.slurmctld_lock_t = type { i32, i32, i32, i32, i32 }
%struct.part_record = type { i32, ptr, ptr, ptr, ptr, ptr, ptr, i32, ptr, ptr, ptr, ptr, ptr, i32, i64, i32, ptr, ptr, ptr, ptr, ptr, i32, i32, ptr, i32, i32, i64, i32, i32, i16, i32, i32, i32, i32, ptr, ptr, ptr, ptr, ptr, double, i16, i16, i16, i16, ptr, ptr, i16, i16, i32, i16, i32, i32, i32, i32, i16, ptr, ptr, ptr }
%struct.slurmdb_qos_rec_t = type { i64, ptr, i32, i32, i32, i32, i32, i32, ptr, ptr, ptr, ptr, ptr, ptr, i32, double, i32, i32, i32, i32, i32, i32, ptr, ptr, ptr, ptr, ptr, ptr, ptr, ptr, ptr, ptr, ptr, ptr, ptr, ptr, i32, i32, ptr, ptr, ptr, ptr, ptr, i16, i32, i32, ptr, ptr, double, double }

@part_list = external global ptr, align 8
@__const._remove_qos.part_write_lock = private unnamed_addr constant %struct.slurmctld_lock_t { i32 0, i32 0, i32 0, i32 2, i32 0 }, align 4
@.str.175 = private unnamed_addr constant [128 x i8] c"Partition %s's QOS %s was just removed, you probably didn't mean for this to happen unless you are also removing the partition.\00", align 1
@.str.176 = private unnamed_addr constant [28 x i8] c"Removed QOS:%s held %u jobs\00", align 1
@.str.177 = private unnamed_addr constant [15 x i8] c"Removed QOS:%s\00", align 1

; Function Attrs: nounwind uwtable
define internal void @_remove_qos(ptr noundef %0) #0 {
  %2 = alloca ptr, align 8
  %3 = alloca i32, align 4
  %4 = alloca ptr, align 8
  %5 = alloca ptr, align 8
  %6 = alloca %struct.slurmctld_lock_t, align 8
  store ptr %0, ptr %2, align 8
  call void @llvm.lifetime.start.p0(i64 4, ptr %3) #11
  store i32 0, ptr %3, align 4
  call void @llvm.lifetime.start.p0(i64 8, ptr %4) #11
  call void @llvm.lifetime.start.p0(i64 8, ptr %5) #11
  call void @llvm.lifetime.start.p0(i64 20, ptr %6) #11
  call void @llvm.memcpy.p0.p0.i64(ptr align 4 %6, ptr align 4 @__const._remove_qos.part_write_lock, i64 20, i1 false)
  call void @lock_slurmctld(ptr noundef byval(%struct.slurmctld_lock_t) align 8 %6)
  %7 = load ptr, ptr @part_list, align 8
  %8 = icmp ne ptr %7, null
  br i1 %8, label %9, label %44

9:                                                ; preds = %1
  %10 = load ptr, ptr @part_list, align 8
  %11 = call ptr @list_iterator_create(ptr noundef %10)
  store ptr %11, ptr %4, align 8
  br label %12

12:                                               ; preds = %39, %22, %9
  %13 = load ptr, ptr %4, align 8
  %14 = call ptr @list_next(ptr noundef %13)
  store ptr %14, ptr %5, align 8
  %15 = icmp ne ptr %14, null
  br i1 %15, label %16, label %42

16:                                               ; preds = %12
  %17 = load ptr, ptr %5, align 8
  %18 = getelementptr inbounds nuw %struct.part_record, ptr %17, i32 0, i32 45
  %19 = load ptr, ptr %18, align 8
  %20 = load ptr, ptr %2, align 8
  %21 = icmp ne ptr %19, %20
  br i1 %21, label %22, label %23

22:                                               ; preds = %16
  br label %12, !llvm.loop !31

23:                                               ; preds = %16
  br label %24

24:                                               ; preds = %23
  br label %25

25:                                               ; preds = %24
  %26 = call i32 @get_log_level()
  %27 = icmp sge i32 %26, 3
  br i1 %27, label %28, label %35

28:                                               ; preds = %25
  %29 = load ptr, ptr %5, align 8
  %30 = getelementptr inbounds nuw %struct.part_record, ptr %29, i32 0, i32 34
  %31 = load ptr, ptr %30, align 8
  %32 = load ptr, ptr %2, align 8
  %33 = getelementptr inbounds nuw %struct.slurmdb_qos_rec_t, ptr %32, i32 0, i32 40
  %34 = load ptr, ptr %33, align 8
  call void (i32, ptr, ...) @log_var(i32 noundef 3, ptr noundef @.str.175, ptr noundef %31, ptr noundef %34)
  br label %35

35:                                               ; preds = %28, %25
  br label %36

36:                                               ; preds = %35
  br label %37

37:                                               ; preds = %36
  br label %38

38:                                               ; preds = %37
  br label %39

39:                                               ; preds = %38
  %40 = load ptr, ptr %5, align 8
  %41 = getelementptr inbounds nuw %struct.part_record, ptr %40, i32 0, i32 45
  store ptr null, ptr %41, align 8
  br label %12, !llvm.loop !31

42:                                               ; preds = %12
  %43 = load ptr, ptr %4, align 8
  call void @list_iterator_destroy(ptr noundef %43)
  br label %44

44:                                               ; preds = %42, %1
  call void @unlock_slurmctld(ptr noundef byval(%struct.slurmctld_lock_t) align 8 %6)
  %45 = call i32 @bb_g_reconfig()
  %46 = load ptr, ptr %2, align 8
  %47 = getelementptr inbounds nuw %struct.slurmdb_qos_rec_t, ptr %46, i32 0, i32 2
  %48 = load i32, ptr %47, align 8
  %49 = call i32 @job_hold_by_qos_id(i32 noundef %48)
  store i32 %49, ptr %3, align 4
  %50 = load i32, ptr %3, align 4
  %51 = icmp ne i32 %50, 0
  br i1 %51, label %52, label %67

52:                                               ; preds = %44
  br label %53

53:                                               ; preds = %52
  br label %54

54:                                               ; preds = %53
  %55 = call i32 @get_log_level()
  %56 = icmp sge i32 %55, 3
  br i1 %56, label %57, label %62

57:                                               ; preds = %54
  %58 = load ptr, ptr %2, align 8
  %59 = getelementptr inbounds nuw %struct.slurmdb_qos_rec_t, ptr %58, i32 0, i32 40
  %60 = load ptr, ptr %59, align 8
  %61 = load i32, ptr %3, align 4
  call void (i32, ptr, ...) @log_var(i32 noundef 3, ptr noundef @.str.176, ptr noundef %60, i32 noundef %61)
  br label %62

62:                                               ; preds = %57, %54
  br label %63

63:                                               ; preds = %62
  br label %64

64:                                               ; preds = %63
  br label %65

65:                                               ; preds = %64
  br label %66

66:                                               ; preds = %65
  br label %81

67:                                               ; preds = %44
  br label %68

68:                                               ; preds = %67
  br label %69

69:                                               ; preds = %68
  %70 = call i32 @get_log_level()
  %71 = icmp sge i32 %70, 5
  br i1 %71, label %72, label %76

72:                                               ; preds = %69
  %73 = load ptr, ptr %2, align 8
  %74 = getelementptr inbounds nuw %struct.slurmdb_qos_rec_t, ptr %73, i32 0, i32 40
  %75 = load ptr, ptr %74, align 8
  call void (i32, ptr, ...) @log_var(i32 noundef 5, ptr noundef @.str.177, ptr noundef %75)
  br label %76

76:                                               ; preds = %72, %69
  br label %77

77:                                               ; preds = %76
  br label %78

78:                                               ; preds = %77
  br label %79

79:                                               ; preds = %78
  br label %80

80:                                               ; preds = %79
  br label %81

81:                                               ; preds = %80, %66
  call void @llvm.lifetime.end.p0(i64 20, ptr %6) #11
  call void @llvm.lifetime.end.p0(i64 8, ptr %5) #11
  call void @llvm.lifetime.end.p0(i64 8, ptr %4) #11
  call void @llvm.lifetime.end.p0(i64 4, ptr %3) #11
  ret void
}