; Function Attrs: nounwind uwtable
define internal void @_remove_qos(ptr noundef readonly captures(address) %0) #6 {
  tail call void @lock_slurmctld(ptr noundef nonnull byval(%struct.slurmctld_lock_t) align 8 @__const._remove_qos.part_write_lock) #19
  %2 = load ptr, ptr @part_list, align 8
  %.not = icmp eq ptr %2, null
  br i1 %.not, label %20, label %3

3:                                                ; preds = %1
  %4 = tail call ptr @list_iterator_create(ptr noundef nonnull %2) #19
  %5 = tail call ptr @list_next(ptr noundef %4) #19
  %.not1417 = icmp eq ptr %5, null
  br i1 %.not1417, label %._crit_edge, label %.lr.ph

.lr.ph:                                           ; preds = %3
  %6 = getelementptr inbounds nuw i8, ptr %0, i64 264
  br label %7

7:                                                ; preds = %.lr.ph, %.backedge
  %8 = phi ptr [ %5, %.lr.ph ], [ %19, %.backedge ]
  %9 = getelementptr inbounds nuw i8, ptr %8, i64 296
  %10 = load ptr, ptr %9, align 8
  %.not16 = icmp eq ptr %10, %0
  br i1 %.not16, label %11, label %.backedge

11:                                               ; preds = %7
  %12 = tail call i32 @get_log_level() #19
  %13 = icmp sgt i32 %12, 2
  br i1 %13, label %14, label %18

14:                                               ; preds = %11
  %15 = getelementptr inbounds nuw i8, ptr %8, i64 232
  %16 = load ptr, ptr %15, align 8
  %17 = load ptr, ptr %6, align 8
  tail call void (i32, ptr, ...) @log_var(i32 noundef 3, ptr noundef nonnull @.str.175, ptr noundef %16, ptr noundef %17) #19
  br label %18

18:                                               ; preds = %14, %11
  store ptr null, ptr %9, align 8
  br label %.backedge

.backedge:                                        ; preds = %18, %7
  %19 = tail call ptr @list_next(ptr noundef %4) #19
  %.not14 = icmp eq ptr %19, null
  br i1 %.not14, label %._crit_edge, label %7, !llvm.loop !36

._crit_edge:                                      ; preds = %.backedge, %3
  tail call void @list_iterator_destroy(ptr noundef %4) #19
  br label %20

20:                                               ; preds = %._crit_edge, %1
  tail call void @unlock_slurmctld(ptr noundef nonnull byval(%struct.slurmctld_lock_t) align 8 @__const._remove_qos.part_write_lock) #19
  %21 = tail call i32 @bb_g_reconfig() #19
  %22 = getelementptr inbounds nuw i8, ptr %0, i64 16
  %23 = load i32, ptr %22, align 8
  %24 = tail call i32 @job_hold_by_qos_id(i32 noundef %23) #19
  %.not15 = icmp eq i32 %24, 0
  %25 = tail call i32 @get_log_level() #19
  br i1 %.not15, label %31, label %26

26:                                               ; preds = %20
  %27 = icmp sgt i32 %25, 2
  br i1 %27, label %28, label %36

28:                                               ; preds = %26
  %29 = getelementptr inbounds nuw i8, ptr %0, i64 264
  %30 = load ptr, ptr %29, align 8
  tail call void (i32, ptr, ...) @log_var(i32 noundef 3, ptr noundef nonnull @.str.176, ptr noundef %30, i32 noundef %24) #19
  br label %36

31:                                               ; preds = %20
  %32 = icmp sgt i32 %25, 4
  br i1 %32, label %33, label %36

33:                                               ; preds = %31
  %34 = getelementptr inbounds nuw i8, ptr %0, i64 264
  %35 = load ptr, ptr %34, align 8
  tail call void (i32, ptr, ...) @log_var(i32 noundef 5, ptr noundef nonnull @.str.177, ptr noundef %35) #19
  br label %36

36:                                               ; preds = %31, %33, %26, %28
  ret void
}